target datalayout = "e-m:e-p270:32:32-p271:32:32-p272:64:64-i64:64-i128:128-f80:128-n8:16:32:64-S128"
target triple = "x86_64-pc-linux-gnu"

; Function Attrs: alwaysinline nounwind willreturn memory(none) uwtable
define internal zeroext i8 @av_clip_uint8_c(i32 noundef %0) #4 {
  %2 = alloca i8, align 1
  %3 = alloca i32, align 4
  store i32 %0, ptr %3, align 4, !tbaa !14
  %4 = load i32, ptr %3, align 4, !tbaa !14
  %5 = and i32 %4, -256
  %6 = icmp ne i32 %5, 0
  br i1 %6, label %7, label %12

7:                                                ; preds = %1
  %8 = load i32, ptr %3, align 4, !tbaa !14
  %9 = xor i32 %8, -1
  %10 = ashr i32 %9, 31
  %11 = trunc i32 %10 to i8
  store i8 %11, ptr %2, align 1
  br label %15

12:                                               ; preds = %1
  %13 = load i32, ptr %3, align 4, !tbaa !14
  %14 = trunc i32 %13 to i8
  store i8 %14, ptr %2, align 1
  br label %15

15:                                               ; preds = %12, %7
  %16 = load i8, ptr %2, align 1
  ret i8 %16
}

; Function Attrs: nounwind uwtable
define internal void @vp7_idct_dc_add_c(ptr noundef %0, ptr noundef %1, i64 noundef %2) #1 {
  %4 = alloca ptr, align 8
  %5 = alloca ptr, align 8
  %6 = alloca i64, align 8
  %7 = alloca i32, align 4
  %8 = alloca i32, align 4
  store ptr %0, ptr %4, align 8, !tbaa !10
  store ptr %1, ptr %5, align 8, !tbaa !134
  store i64 %2, ptr %6, align 8, !tbaa !12
  call void @llvm.lifetime.start.p0(i64 4, ptr %7) #6
  call void @llvm.lifetime.start.p0(i64 4, ptr %8) #6
  %9 = load ptr, ptr %5, align 8, !tbaa !134
  %10 = getelementptr inbounds i16, ptr %9, i64 0
  %11 = load i16, ptr %10, align 2, !tbaa !136
  %12 = sext i16 %11 to i32
  %13 = mul nsw i32 23170, %12
  %14 = ashr i32 %13, 14
  %15 = mul nsw i32 23170, %14
  %16 = add nsw i32 %15, 131072
  %17 = ashr i32 %16, 18
  store i32 %17, ptr %8, align 4, !tbaa !14
  %18 = load ptr, ptr %5, align 8, !tbaa !134
  %19 = getelementptr inbounds i16, ptr %18, i64 0
  store i16 0, ptr %19, align 2, !tbaa !136
  store i32 0, ptr %7, align 4, !tbaa !14
  br label %20

20:                                               ; preds = %63, %3
  %21 = load i32, ptr %7, align 4, !tbaa !14
  %22 = icmp slt i32 %21, 4
  br i1 %22, label %23, label %66

23:                                               ; preds = %20
  %24 = load ptr, ptr %4, align 8, !tbaa !10
  %25 = getelementptr inbounds i8, ptr %24, i64 0
  %26 = load i8, ptr %25, align 1, !tbaa !18
  %27 = zext i8 %26 to i32
  %28 = load i32, ptr %8, align 4, !tbaa !14
  %29 = add nsw i32 %27, %28
  %30 = call zeroext i8 @av_clip_uint8_c(i32 noundef %29) #7
  %31 = load ptr, ptr %4, align 8, !tbaa !10
  %32 = getelementptr inbounds i8, ptr %31, i64 0
  store i8 %30, ptr %32, align 1, !tbaa !18
  %33 = load ptr, ptr %4, align 8, !tbaa !10
  %34 = getelementptr inbounds i8, ptr %33, i64 1
  %35 = load i8, ptr %34, align 1, !tbaa !18
  %36 = zext i8 %35 to i32
  %37 = load i32, ptr %8, align 4, !tbaa !14
  %38 = add nsw i32 %36, %37
  %39 = call zeroext i8 @av_clip_uint8_c(i32 noundef %38) #7
  %40 = load ptr, ptr %4, align 8, !tbaa !10
  %41 = getelementptr inbounds i8, ptr %40, i64 1
  store i8 %39, ptr %41, align 1, !tbaa !18
  %42 = load ptr, ptr %4, align 8, !tbaa !10
  %43 = getelementptr inbounds i8, ptr %42, i64 2
  %44 = load i8, ptr %43, align 1, !tbaa !18
  %45 = zext i8 %44 to i32
  %46 = load i32, ptr %8, align 4, !tbaa !14
  %47 = add nsw i32 %45, %46
  %48 = call zeroext i8 @av_clip_uint8_c(i32 noundef %47) #7
  %49 = load ptr, ptr %4, align 8, !tbaa !10
  %50 = getelementptr inbounds i8, ptr %49, i64 2
  store i8 %48, ptr %50, align 1, !tbaa !18
  %51 = load ptr, ptr %4, align 8, !tbaa !10
  %52 = getelementptr inbounds i8, ptr %51, i64 3
  %53 = load i8, ptr %52, align 1, !tbaa !18
  %54 = zext i8 %53 to i32
  %55 = load i32, ptr %8, align 4, !tbaa !14
  %56 = add nsw i32 %54, %55
  %57 = call zeroext i8 @av_clip_uint8_c(i32 noundef %56) #7
  %58 = load ptr, ptr %4, align 8, !tbaa !10
  %59 = getelementptr inbounds i8, ptr %58, i64 3
  store i8 %57, ptr %59, align 1, !tbaa !18
  %60 = load i64, ptr %6, align 8, !tbaa !12
  %61 = load ptr, ptr %4, align 8, !tbaa !10
  %62 = getelementptr inbounds i8, ptr %61, i64 %60
  store ptr %62, ptr %4, align 8, !tbaa !10
  br label %63

63:                                               ; preds = %23
  %64 = load i32, ptr %7, align 4, !tbaa !14
  %65 = add nsw i32 %64, 1
  store i32 %65, ptr %7, align 4, !tbaa !14
  br label %20, !llvm.loop !143

66:                                               ; preds = %20
  call void @llvm.lifetime.end.p0(i64 4, ptr %8) #6
  call void @llvm.lifetime.end.p0(i64 4, ptr %7) #6
  ret void
}