; Function Attrs: nofree norecurse nosync nounwind memory(argmem: readwrite) uwtable
define internal void @vp7_idct_dc_add_c(ptr noundef captures(none) %0, ptr noundef captures(none) %1, i64 noundef %2) #1 {
.lver.check:
  %3 = load i16, ptr %1, align 2, !tbaa !126
  %4 = sext i16 %3 to i32
  %5 = mul nsw i32 %4, 23170
  %6 = ashr i32 %5, 14
  %7 = mul nsw i32 %6, 23170
  %8 = add nsw i32 %7, 131072
  %9 = ashr i32 %8, 18
  store i16 0, ptr %1, align 2, !tbaa !126
  %ident.check.not = icmp eq i64 %2, 1
  br i1 %ident.check.not, label %.ph, label %.ph.lver.orig

.ph.lver.orig:                                    ; preds = %.lver.check, %.ph.lver.orig
  %.028.lver.orig = phi ptr [ %33, %.ph.lver.orig ], [ %0, %.lver.check ]
  %.01727.lver.orig = phi i32 [ %34, %.ph.lver.orig ], [ 0, %.lver.check ]
  %10 = load i8, ptr %.028.lver.orig, align 1, !tbaa !10
  %11 = zext i8 %10 to i32
  %12 = add nsw i32 %9, %11
  %.not.i.lver.orig = icmp ult i32 %12, 256
  %isnotneg.i.lver.orig = icmp sgt i32 %12, -1
  %13 = sext i1 %isnotneg.i.lver.orig to i8
  %14 = trunc nuw i32 %12 to i8
  %.0.i.lver.orig = select i1 %.not.i.lver.orig, i8 %14, i8 %13
  store i8 %.0.i.lver.orig, ptr %.028.lver.orig, align 1, !tbaa !10
  %15 = getelementptr inbounds nuw i8, ptr %.028.lver.orig, i64 1
  %16 = load i8, ptr %15, align 1, !tbaa !10
  %17 = zext i8 %16 to i32
  %18 = add nsw i32 %9, %17
  %.not.i18.lver.orig = icmp ult i32 %18, 256
  %isnotneg.i19.lver.orig = icmp sgt i32 %18, -1
  %19 = sext i1 %isnotneg.i19.lver.orig to i8
  %20 = trunc nuw i32 %18 to i8
  %.0.i20.lver.orig = select i1 %.not.i18.lver.orig, i8 %20, i8 %19
  store i8 %.0.i20.lver.orig, ptr %15, align 1, !tbaa !10
  %21 = getelementptr inbounds nuw i8, ptr %.028.lver.orig, i64 2
  %22 = load i8, ptr %21, align 1, !tbaa !10
  %23 = zext i8 %22 to i32
  %24 = add nsw i32 %9, %23
  %.not.i21.lver.orig = icmp ult i32 %24, 256
  %isnotneg.i22.lver.orig = icmp sgt i32 %24, -1
  %25 = sext i1 %isnotneg.i22.lver.orig to i8
  %26 = trunc nuw i32 %24 to i8
  %.0.i23.lver.orig = select i1 %.not.i21.lver.orig, i8 %26, i8 %25
  store i8 %.0.i23.lver.orig, ptr %21, align 1, !tbaa !10
  %27 = getelementptr inbounds nuw i8, ptr %.028.lver.orig, i64 3
  %28 = load i8, ptr %27, align 1, !tbaa !10
  %29 = zext i8 %28 to i32
  %30 = add nsw i32 %9, %29
  %.not.i24.lver.orig = icmp ult i32 %30, 256
  %isnotneg.i25.lver.orig = icmp sgt i32 %30, -1
  %31 = sext i1 %isnotneg.i25.lver.orig to i8
  %32 = trunc nuw i32 %30 to i8
  %.0.i26.lver.orig = select i1 %.not.i24.lver.orig, i8 %32, i8 %31
  store i8 %.0.i26.lver.orig, ptr %27, align 1, !tbaa !10
  %33 = getelementptr inbounds i8, ptr %.028.lver.orig, i64 %2
  %34 = add nuw nsw i32 %.01727.lver.orig, 1
  %exitcond.not.lver.orig = icmp eq i32 %34, 4
  br i1 %exitcond.not.lver.orig, label %.loopexit, label %.ph.lver.orig, !llvm.loop !133

.ph:                                              ; preds = %.lver.check
  %scevgep = getelementptr nuw i8, ptr %0, i64 2
  %load_initial = load i8, ptr %scevgep, align 1
  br label %35

35:                                               ; preds = %.ph, %35
  %store_forwarded = phi i8 [ %load_initial, %.ph ], [ %.0.i26, %35 ]
  %.028 = phi ptr [ %0, %.ph ], [ %58, %35 ]
  %.01727 = phi i32 [ 0, %.ph ], [ %59, %35 ]
  %36 = load i8, ptr %.028, align 1, !tbaa !10
  %37 = zext i8 %36 to i32
  %38 = add nsw i32 %9, %37
  %.not.i = icmp ult i32 %38, 256
  %isnotneg.i = icmp sgt i32 %38, -1
  %39 = sext i1 %isnotneg.i to i8
  %40 = trunc nuw i32 %38 to i8
  %.0.i = select i1 %.not.i, i8 %40, i8 %39
  store i8 %.0.i, ptr %.028, align 1, !tbaa !10
  %41 = getelementptr inbounds nuw i8, ptr %.028, i64 1
  %42 = load i8, ptr %41, align 1, !tbaa !10
  %43 = zext i8 %42 to i32
  %44 = add nsw i32 %9, %43
  %.not.i18 = icmp ult i32 %44, 256
  %isnotneg.i19 = icmp sgt i32 %44, -1
  %45 = sext i1 %isnotneg.i19 to i8
  %46 = trunc nuw i32 %44 to i8
  %.0.i20 = select i1 %.not.i18, i8 %46, i8 %45
  store i8 %.0.i20, ptr %41, align 1, !tbaa !10
  %47 = getelementptr inbounds nuw i8, ptr %.028, i64 2
  %48 = zext i8 %store_forwarded to i32
  %49 = add nsw i32 %9, %48
  %.not.i21 = icmp ult i32 %49, 256
  %isnotneg.i22 = icmp sgt i32 %49, -1
  %50 = sext i1 %isnotneg.i22 to i8
  %51 = trunc nuw i32 %49 to i8
  %.0.i23 = select i1 %.not.i21, i8 %51, i8 %50
  store i8 %.0.i23, ptr %47, align 1, !tbaa !10
  %52 = getelementptr inbounds nuw i8, ptr %.028, i64 3
  %53 = load i8, ptr %52, align 1, !tbaa !10
  %54 = zext i8 %53 to i32
  %55 = add nsw i32 %9, %54
  %.not.i24 = icmp ult i32 %55, 256
  %isnotneg.i25 = icmp sgt i32 %55, -1
  %56 = sext i1 %isnotneg.i25 to i8
  %57 = trunc nuw i32 %55 to i8
  %.0.i26 = select i1 %.not.i24, i8 %57, i8 %56
  store i8 %.0.i26, ptr %52, align 1, !tbaa !10
  %58 = getelementptr inbounds nuw i8, ptr %.028, i64 %2
  %59 = add nuw nsw i32 %.01727, 1
  %exitcond.not = icmp eq i32 %59, 4
  br i1 %exitcond.not, label %.loopexit, label %35, !llvm.loop !133

.loopexit:                                        ; preds = %.ph.lver.orig, %35
  ret void
}